target datalayout = "e-m:e-p270:32:32-p271:32:32-p272:64:64-i64:64-i128:128-f80:128-n8:16:32:64-S128"
target triple = "x86_64-pc-linux-gnu"

%struct.Aig_Obj_t_ = type { %union.anon, ptr, ptr, i64, i32, i32, %union.anon.0 }
%union.anon = type { ptr }
%union.anon.0 = type { ptr }
%struct.Fra_Man_t_ = type { ptr, ptr, ptr, i32, ptr, i32, ptr, ptr, ptr, i32, ptr, ptr, ptr, ptr, i32, ptr, i64, i64, ptr, ptr, i32, ptr, i32, i32, i32, i32, i32, i32, i32, i32, i32, i32, i32, i32, i32, i32, i32, i32, i32, i32, i32, i64, i64, i64, i64, i64, i64, i64, i64, i64, i64, i64 }
%struct.Fra_Sml_t_ = type { ptr, i32, i32, i32, i32, i32, i32, i32, i32, [0 x i32] }
%struct.Aig_Man_t_ = type { ptr, ptr, ptr, ptr, ptr, ptr, ptr, %struct.Aig_Obj_t_, i32, i32, i32, i32, i32, i32, [7 x i32], i32, ptr, i32, ptr, i32, ptr, i32, i32, i32, ptr, i32, i32, i32, i32, i32, ptr, ptr, i32, ptr, ptr, i32, ptr, ptr, i32, i32, i32, ptr, ptr, ptr, ptr, ptr, ptr, ptr, ptr, ptr, ptr, ptr, ptr, ptr, ptr, i32, ptr, ptr, ptr, ptr, i32, i64, i64, i64, ptr, ptr }
%struct.Vec_Ptr_t_ = type { i32, i32, ptr }

; Function Attrs: inlinehint nounwind uwtable
define internal ptr @Fra_ObjSim(ptr noundef %0, i32 noundef %1) #2 {
  %3 = alloca ptr, align 8
  %4 = alloca i32, align 4
  store ptr %0, ptr %3, align 8, !tbaa !35
  store i32 %1, ptr %4, align 4, !tbaa !8
  %5 = load ptr, ptr %3, align 8, !tbaa !35
  %6 = getelementptr inbounds nuw %struct.Fra_Sml_t_, ptr %5, i32 0, i32 9
  %7 = getelementptr inbounds [0 x i32], ptr %6, i64 0, i64 0
  %8 = load ptr, ptr %3, align 8, !tbaa !35
  %9 = getelementptr inbounds nuw %struct.Fra_Sml_t_, ptr %8, i32 0, i32 4
  %10 = load i32, ptr %9, align 4, !tbaa !32
  %11 = load i32, ptr %4, align 4, !tbaa !8
  %12 = mul nsw i32 %10, %11
  %13 = sext i32 %12 to i64
  %14 = getelementptr inbounds i32, ptr %7, i64 %13
  ret ptr %14
}

; Function Attrs: inlinehint nounwind uwtable
define internal ptr @Aig_Regular(ptr noundef %0) #2 {
  %2 = alloca ptr, align 8
  store ptr %0, ptr %2, align 8, !tbaa !3
  %3 = load ptr, ptr %2, align 8, !tbaa !3
  %4 = ptrtoint ptr %3 to i64
  %5 = and i64 %4, -2
  %6 = inttoptr i64 %5 to ptr
  ret ptr %6
}

; Function Attrs: nounwind uwtable
define i32 @Fra_SmlNodeIsConst(ptr noundef %0) #0 {
  %2 = alloca i32, align 4
  %3 = alloca ptr, align 8
  %4 = alloca ptr, align 8
  %5 = alloca ptr, align 8
  %6 = alloca i32, align 4
  %7 = alloca i32, align 4
  store ptr %0, ptr %3, align 8, !tbaa !3
  call void @llvm.lifetime.start.p0(i64 8, ptr %4) #8
  %8 = load ptr, ptr %3, align 8, !tbaa !3
  %9 = getelementptr inbounds nuw %struct.Aig_Obj_t_, ptr %8, i32 0, i32 6
  %10 = load ptr, ptr %9, align 8, !tbaa !10
  store ptr %10, ptr %4, align 8, !tbaa !11
  call void @llvm.lifetime.start.p0(i64 8, ptr %5) #8
  call void @llvm.lifetime.start.p0(i64 4, ptr %6) #8
  %11 = load ptr, ptr %4, align 8, !tbaa !11
  %12 = getelementptr inbounds nuw %struct.Fra_Man_t_, ptr %11, i32 0, i32 7
  %13 = load ptr, ptr %12, align 8, !tbaa !13
  %14 = load ptr, ptr %3, align 8, !tbaa !3
  %15 = getelementptr inbounds nuw %struct.Aig_Obj_t_, ptr %14, i32 0, i32 5
  %16 = load i32, ptr %15, align 4, !tbaa !27
  %17 = call ptr @Fra_ObjSim(ptr noundef %13, i32 noundef %16)
  store ptr %17, ptr %5, align 8, !tbaa !29
  %18 = load ptr, ptr %4, align 8, !tbaa !11
  %19 = getelementptr inbounds nuw %struct.Fra_Man_t_, ptr %18, i32 0, i32 7
  %20 = load ptr, ptr %19, align 8, !tbaa !13
  %21 = getelementptr inbounds nuw %struct.Fra_Sml_t_, ptr %20, i32 0, i32 5
  %22 = load i32, ptr %21, align 8, !tbaa !30
  store i32 %22, ptr %6, align 4, !tbaa !8
  br label %23

23:                                               ; preds = %40, %1
  %24 = load i32, ptr %6, align 4, !tbaa !8
  %25 = load ptr, ptr %4, align 8, !tbaa !11
  %26 = getelementptr inbounds nuw %struct.Fra_Man_t_, ptr %25, i32 0, i32 7
  %27 = load ptr, ptr %26, align 8, !tbaa !13
  %28 = getelementptr inbounds nuw %struct.Fra_Sml_t_, ptr %27, i32 0, i32 4
  %29 = load i32, ptr %28, align 4, !tbaa !32
  %30 = icmp slt i32 %24, %29
  br i1 %30, label %31, label %43

31:                                               ; preds = %23
  %32 = load ptr, ptr %5, align 8, !tbaa !29
  %33 = load i32, ptr %6, align 4, !tbaa !8
  %34 = sext i32 %33 to i64
  %35 = getelementptr inbounds i32, ptr %32, i64 %34
  %36 = load i32, ptr %35, align 4, !tbaa !8
  %37 = icmp ne i32 %36, 0
  br i1 %37, label %38, label %39

38:                                               ; preds = %31
  store i32 0, ptr %2, align 4
  store i32 1, ptr %7, align 4
  br label %44

39:                                               ; preds = %31
  br label %40

40:                                               ; preds = %39
  %41 = load i32, ptr %6, align 4, !tbaa !8
  %42 = add nsw i32 %41, 1
  store i32 %42, ptr %6, align 4, !tbaa !8
  br label %23, !llvm.loop !36

43:                                               ; preds = %23
  store i32 1, ptr %2, align 4
  store i32 1, ptr %7, align 4
  br label %44

44:                                               ; preds = %43, %38
  call void @llvm.lifetime.end.p0(i64 4, ptr %6) #8
  call void @llvm.lifetime.end.p0(i64 8, ptr %5) #8
  call void @llvm.lifetime.end.p0(i64 8, ptr %4) #8
  %45 = load i32, ptr %2, align 4
  ret i32 %45
}

; Function Attrs: inlinehint nounwind uwtable
define internal ptr @Aig_ObjFanin0(ptr noundef %0) #2 {
  %2 = alloca ptr, align 8
  store ptr %0, ptr %2, align 8, !tbaa !3
  %3 = load ptr, ptr %2, align 8, !tbaa !3
  %4 = getelementptr inbounds nuw %struct.Aig_Obj_t_, ptr %3, i32 0, i32 1
  %5 = load ptr, ptr %4, align 8, !tbaa !88
  %6 = call ptr @Aig_Regular(ptr noundef %5)
  ret ptr %6
}

; Function Attrs: inlinehint nounwind uwtable
define internal ptr @Vec_PtrEntry(ptr noundef %0, i32 noundef %1) #2 {
  %3 = alloca ptr, align 8
  %4 = alloca i32, align 4
  store ptr %0, ptr %3, align 8, !tbaa !54
  store i32 %1, ptr %4, align 4, !tbaa !8
  %5 = load ptr, ptr %3, align 8, !tbaa !54
  %6 = getelementptr inbounds nuw %struct.Vec_Ptr_t_, ptr %5, i32 0, i32 2
  %7 = load ptr, ptr %6, align 8, !tbaa !57
  %8 = load i32, ptr %4, align 4, !tbaa !8
  %9 = sext i32 %8 to i64
  %10 = getelementptr inbounds ptr, ptr %7, i64 %9
  %11 = load ptr, ptr %10, align 8, !tbaa !58
  ret ptr %11
}

; Function Attrs: inlinehint nounwind uwtable
define internal i32 @Vec_PtrSize(ptr noundef %0) #2 {
  %2 = alloca ptr, align 8
  store ptr %0, ptr %2, align 8, !tbaa !54
  %3 = load ptr, ptr %2, align 8, !tbaa !54
  %4 = getelementptr inbounds nuw %struct.Vec_Ptr_t_, ptr %3, i32 0, i32 1
  %5 = load i32, ptr %4, align 4, !tbaa !55
  ret i32 %5
}

; Function Attrs: inlinehint nounwind uwtable
define internal ptr @Aig_ManCo(ptr noundef %0, i32 noundef %1) #2 {
  %3 = alloca ptr, align 8
  %4 = alloca i32, align 4
  store ptr %0, ptr %3, align 8, !tbaa !52
  store i32 %1, ptr %4, align 4, !tbaa !8
  %5 = load ptr, ptr %3, align 8, !tbaa !52
  %6 = getelementptr inbounds nuw %struct.Aig_Man_t_, ptr %5, i32 0, i32 3
  %7 = load ptr, ptr %6, align 8, !tbaa !89
  %8 = load i32, ptr %4, align 4, !tbaa !8
  %9 = call ptr @Vec_PtrEntry(ptr noundef %7, i32 noundef %8)
  ret ptr %9
}

; Function Attrs: nounwind uwtable
define i32 @Fra_SmlCheckOutput(ptr noundef %0) #0 {
  %2 = alloca i32, align 4
  %3 = alloca ptr, align 8
  %4 = alloca ptr, align 8
  %5 = alloca i32, align 4
  %6 = alloca i32, align 4
  store ptr %0, ptr %3, align 8, !tbaa !11
  call void @llvm.lifetime.start.p0(i64 8, ptr %4) #8
  call void @llvm.lifetime.start.p0(i64 4, ptr %5) #8
  %7 = load ptr, ptr %3, align 8, !tbaa !11
  %8 = getelementptr inbounds nuw %struct.Fra_Man_t_, ptr %7, i32 0, i32 1
  %9 = load ptr, ptr %8, align 8, !tbaa !43
  %10 = call ptr @Aig_ManCo(ptr noundef %9, i32 noundef 0)
  store ptr %10, ptr %4, align 8, !tbaa !3
  store i32 0, ptr %5, align 4, !tbaa !8
  br label %11

11:                                               ; preds = %39, %1
  %12 = load i32, ptr %5, align 4, !tbaa !8
  %13 = load ptr, ptr %3, align 8, !tbaa !11
  %14 = getelementptr inbounds nuw %struct.Fra_Man_t_, ptr %13, i32 0, i32 1
  %15 = load ptr, ptr %14, align 8, !tbaa !43
  %16 = getelementptr inbounds nuw %struct.Aig_Man_t_, ptr %15, i32 0, i32 3
  %17 = load ptr, ptr %16, align 8, !tbaa !89
  %18 = call i32 @Vec_PtrSize(ptr noundef %17)
  %19 = icmp slt i32 %12, %18
  br i1 %19, label %20, label %28

20:                                               ; preds = %11
  %21 = load ptr, ptr %3, align 8, !tbaa !11
  %22 = getelementptr inbounds nuw %struct.Fra_Man_t_, ptr %21, i32 0, i32 1
  %23 = load ptr, ptr %22, align 8, !tbaa !43
  %24 = getelementptr inbounds nuw %struct.Aig_Man_t_, ptr %23, i32 0, i32 3
  %25 = load ptr, ptr %24, align 8, !tbaa !89
  %26 = load i32, ptr %5, align 4, !tbaa !8
  %27 = call ptr @Vec_PtrEntry(ptr noundef %25, i32 noundef %26)
  store ptr %27, ptr %4, align 8, !tbaa !3
  br label %28

28:                                               ; preds = %20, %11
  %29 = phi i1 [ false, %11 ], [ true, %20 ]
  br i1 %29, label %30, label %42

30:                                               ; preds = %28
  %31 = load ptr, ptr %4, align 8, !tbaa !3
  %32 = call ptr @Aig_ObjFanin0(ptr noundef %31)
  %33 = call i32 @Fra_SmlNodeIsConst(ptr noundef %32)
  %34 = icmp ne i32 %33, 0
  br i1 %34, label %38, label %35

35:                                               ; preds = %30
  %36 = load ptr, ptr %3, align 8, !tbaa !11
  %37 = load ptr, ptr %4, align 8, !tbaa !3
  call void @Fra_SmlCheckOutputSavePattern(ptr noundef %36, ptr noundef %37)
  store i32 1, ptr %2, align 4
  store i32 1, ptr %6, align 4
  br label %43

38:                                               ; preds = %30
  br label %39

39:                                               ; preds = %38
  %40 = load i32, ptr %5, align 4, !tbaa !8
  %41 = add nsw i32 %40, 1
  store i32 %41, ptr %5, align 4, !tbaa !8
  br label %11, !llvm.loop !90

42:                                               ; preds = %28
  store i32 0, ptr %2, align 4
  store i32 1, ptr %6, align 4
  br label %43

43:                                               ; preds = %42, %35
  call void @llvm.lifetime.end.p0(i64 4, ptr %5) #8
  call void @llvm.lifetime.end.p0(i64 8, ptr %4) #8
  %44 = load i32, ptr %2, align 4
  ret i32 %44
}