; Function Attrs: nofree nounwind uwtable
define range(i32 0, 2) i32 @Fra_SmlCheckOutput(ptr noundef readonly captures(none) %0) local_unnamed_addr #7 {
  %2 = getelementptr inbounds nuw i8, ptr %0, i64 8
  %3 = load ptr, ptr %2, align 8, !tbaa !38
  %4 = getelementptr i8, ptr %3, i64 24
  %.val12 = load ptr, ptr %4, align 8, !tbaa !80
  %5 = getelementptr i8, ptr %.val12, i64 8
  %.val12.val = load ptr, ptr %5, align 8, !tbaa !51
  %6 = getelementptr i8, ptr %.val12, i64 4
  %.val = load i32, ptr %6, align 4, !tbaa !46
  %7 = icmp sgt i32 %.val, 0
  br i1 %7, label %.lr.ph.preheader, label %.critedge

.lr.ph.preheader:                                 ; preds = %1
  %wide.trip.count = zext nneg i32 %.val to i64
  br label %.lr.ph

.lr.ph:                                           ; preds = %.lr.ph.preheader, %.loopexit
  %indvars.iv = phi i64 [ 0, %.lr.ph.preheader ], [ %indvars.iv.next, %.loopexit ]
  %8 = getelementptr inbounds nuw ptr, ptr %.val12.val, i64 %indvars.iv
  %9 = load ptr, ptr %8, align 8, !tbaa !65
  %10 = getelementptr i8, ptr %9, i64 8
  %.val11 = load ptr, ptr %10, align 8, !tbaa !75
  %11 = ptrtoint ptr %.val11 to i64
  %12 = and i64 %11, -2
  %13 = inttoptr i64 %12 to ptr
  %14 = getelementptr inbounds nuw i8, ptr %13, i64 40
  %15 = load ptr, ptr %14, align 8, !tbaa !3
  %16 = getelementptr inbounds nuw i8, ptr %15, i64 56
  %17 = load ptr, ptr %16, align 8, !tbaa !6
  %18 = getelementptr inbounds nuw i8, ptr %13, i64 36
  %19 = load i32, ptr %18, align 4, !tbaa !22
  %20 = getelementptr inbounds nuw i8, ptr %17, i64 40
  %21 = getelementptr inbounds nuw i8, ptr %17, i64 20
  %22 = load i32, ptr %21, align 4, !tbaa !25
  %23 = mul nsw i32 %22, %19
  %24 = sext i32 %23 to i64
  %25 = getelementptr inbounds i32, ptr %20, i64 %24
  %26 = getelementptr inbounds nuw i8, ptr %17, i64 24
  %27 = load i32, ptr %26, align 8, !tbaa !27
  %28 = icmp slt i32 %27, %22
  br i1 %28, label %.lr.ph.preheader.i, label %.loopexit

.lr.ph.preheader.i:                               ; preds = %.lr.ph
  %29 = sext i32 %27 to i64
  br label %.lr.ph.i

30:                                               ; preds = %.lr.ph.i
  %indvars.iv.next.i = add nsw i64 %indvars.iv.i, 1
  %lftr.wideiv.i = trunc i64 %indvars.iv.next.i to i32
  %exitcond.not.i = icmp eq i32 %22, %lftr.wideiv.i
  br i1 %exitcond.not.i, label %.loopexit, label %.lr.ph.i, !llvm.loop !31

.lr.ph.i:                                         ; preds = %30, %.lr.ph.preheader.i
  %indvars.iv.i = phi i64 [ %29, %.lr.ph.preheader.i ], [ %indvars.iv.next.i, %30 ]
  %31 = getelementptr inbounds i32, ptr %25, i64 %indvars.iv.i
  %32 = load i32, ptr %31, align 4, !tbaa !28
  %.not.i = icmp eq i32 %32, 0
  br i1 %.not.i, label %30, label %Fra_SmlNodeIsConst.exit

Fra_SmlNodeIsConst.exit:                          ; preds = %.lr.ph.i
  tail call void @Fra_SmlCheckOutputSavePattern(ptr noundef %0, ptr noundef %9)
  br label %.critedge

.loopexit:                                        ; preds = %30, %.lr.ph
  %indvars.iv.next = add nuw nsw i64 %indvars.iv, 1
  %exitcond.not = icmp eq i64 %indvars.iv.next, %wide.trip.count
  br i1 %exitcond.not, label %.critedge, label %.lr.ph, !llvm.loop !81

.critedge:                                        ; preds = %.loopexit, %1, %Fra_SmlNodeIsConst.exit
  %.09 = phi i32 [ 1, %Fra_SmlNodeIsConst.exit ], [ 0, %1 ], [ 0, %.loopexit ]
  ret i32 %.09
}